target datalayout = "e-m:e-p270:32:32-p271:32:32-p272:64:64-i64:64-i128:128-f80:128-n8:16:32:64-S128"
target triple = "x86_64-pc-linux-gnu"

%struct.functionsLibCtx = type { ptr, ptr, i64, ptr }

@curr_functions_lib_ctx = internal global ptr null, align 8
@engines = internal global ptr null, align 8

; Function Attrs: nounwind uwtable
define dso_local i32 @functionsInit() #1 {
  %1 = alloca i32, align 4
  %2 = call ptr @dictCreate(ptr noundef @engineDictType)
  store ptr %2, ptr @engines, align 8, !tbaa !5
  %3 = call i32 @luaEngineInitEngine()
  %4 = icmp ne i32 %3, 0
  br i1 %4, label %5, label %6

5:                                                ; preds = %0
  store i32 -1, ptr %1, align 4
  br label %8

6:                                                ; preds = %0
  %7 = call ptr @functionsLibCtxCreate()
  store ptr %7, ptr @curr_functions_lib_ctx, align 8, !tbaa !38
  store i32 0, ptr %1, align 4
  br label %8

8:                                                ; preds = %6, %5
  %9 = load i32, ptr %1, align 4
  ret i32 %9
}

; Function Attrs: nounwind uwtable
define dso_local void @functionsLibCtxFree(ptr noundef %0) #1 {
  %2 = alloca ptr, align 8
  store ptr %0, ptr %2, align 8, !tbaa !38
  %3 = load ptr, ptr %2, align 8, !tbaa !38
  call void @functionsLibCtxClear(ptr noundef %3)
  %4 = load ptr, ptr %2, align 8, !tbaa !38
  %5 = getelementptr inbounds nuw %struct.functionsLibCtx, ptr %4, i32 0, i32 1
  %6 = load ptr, ptr %5, align 8, !tbaa !40
  call void @dictRelease(ptr noundef %6)
  %7 = load ptr, ptr %2, align 8, !tbaa !38
  %8 = getelementptr inbounds nuw %struct.functionsLibCtx, ptr %7, i32 0, i32 0
  %9 = load ptr, ptr %8, align 8, !tbaa !42
  call void @dictRelease(ptr noundef %9)
  %10 = load ptr, ptr %2, align 8, !tbaa !38
  %11 = getelementptr inbounds nuw %struct.functionsLibCtx, ptr %10, i32 0, i32 3
  %12 = load ptr, ptr %11, align 8, !tbaa !43
  call void @dictRelease(ptr noundef %12)
  %13 = load ptr, ptr %2, align 8, !tbaa !38
  call void @zfree(ptr noundef %13)
  ret void
}

; Function Attrs: nounwind uwtable
define dso_local void @functionsLibCtxClearCurrent(i32 noundef %0) #1 {
  %2 = alloca i32, align 4
  %3 = alloca ptr, align 8
  %4 = alloca ptr, align 8
  store i32 %0, ptr %2, align 4, !tbaa !54
  %5 = load i32, ptr %2, align 4, !tbaa !54
  %6 = icmp ne i32 %5, 0
  br i1 %6, label %7, label %12

7:                                                ; preds = %1
  call void @llvm.lifetime.start.p0(i64 8, ptr %3) #11
  %8 = load ptr, ptr @curr_functions_lib_ctx, align 8, !tbaa !38
  store ptr %8, ptr %3, align 8, !tbaa !38
  call void @llvm.lifetime.start.p0(i64 8, ptr %4) #11
  %9 = load ptr, ptr @engines, align 8, !tbaa !5
  store ptr %9, ptr %4, align 8, !tbaa !5
  %10 = load ptr, ptr %3, align 8, !tbaa !38
  %11 = load ptr, ptr %4, align 8, !tbaa !5
  call void @freeFunctionsAsync(ptr noundef %10, ptr noundef %11)
  call void @llvm.lifetime.end.p0(i64 8, ptr %4) #11
  call void @llvm.lifetime.end.p0(i64 8, ptr %3) #11
  br label %15

12:                                               ; preds = %1
  %13 = load ptr, ptr @curr_functions_lib_ctx, align 8, !tbaa !38
  call void @functionsLibCtxFree(ptr noundef %13)
  %14 = load ptr, ptr @engines, align 8, !tbaa !5
  call void @dictRelease(ptr noundef %14)
  br label %15

15:                                               ; preds = %12, %7
  %16 = call i32 @functionsInit()
  ret void
}