; Function Attrs: nounwind uwtable
define dso_local void @functionsLibCtxClearCurrent(i32 noundef %0) local_unnamed_addr #1 {
  %.not = icmp eq i32 %0, 0
  %2 = load ptr, ptr @curr_functions_lib_ctx, align 8, !tbaa !40
  br i1 %.not, label %5, label %3

3:                                                ; preds = %1
  %4 = load ptr, ptr @engines, align 8, !tbaa !42
  tail call void @freeFunctionsAsync(ptr noundef %2, ptr noundef %4) #12
  br label %12

5:                                                ; preds = %1
  tail call void @functionsLibCtxClear(ptr noundef %2)
  %6 = getelementptr inbounds nuw i8, ptr %2, i64 8
  %7 = load ptr, ptr %6, align 8, !tbaa !33
  tail call void @dictRelease(ptr noundef %7) #12
  %8 = load ptr, ptr %2, align 8, !tbaa !35
  tail call void @dictRelease(ptr noundef %8) #12
  %9 = getelementptr inbounds nuw i8, ptr %2, i64 24
  %10 = load ptr, ptr %9, align 8, !tbaa !36
  tail call void @dictRelease(ptr noundef %10) #12
  tail call void @zfree(ptr noundef nonnull %2) #12
  %11 = load ptr, ptr @engines, align 8, !tbaa !42
  tail call void @dictRelease(ptr noundef %11) #12
  br label %12

12:                                               ; preds = %5, %3
  %13 = tail call ptr @dictCreate(ptr noundef nonnull @engineDictType) #12
  store ptr %13, ptr @engines, align 8, !tbaa !42
  %14 = tail call i32 @luaEngineInitEngine() #12
  %.not.i = icmp eq i32 %14, 0
  br i1 %.not.i, label %15, label %functionsInit.exit

15:                                               ; preds = %12
  %16 = tail call ptr @functionsLibCtxCreate()
  store ptr %16, ptr @curr_functions_lib_ctx, align 8, !tbaa !40
  br label %functionsInit.exit

functionsInit.exit:                               ; preds = %12, %15
  ret void
}